target datalayout = "e-m:e-p270:32:32-p271:32:32-p272:64:64-i64:64-i128:128-f80:128-n8:16:32:64-S128"
target triple = "x86_64-pc-linux-gnu"

%struct.wc_Sha256 = type { [8 x i32], [16 x i32], i32, i32, i32, ptr, [8 x i8] }

; Function Attrs: inlinehint nounwind uwtable
define internal i32 @rotlFixed(i32 noundef %0, i32 noundef %1) #2 {
  %3 = alloca i32, align 4
  %4 = alloca i32, align 4
  store i32 %0, ptr %3, align 4, !tbaa !10
  store i32 %1, ptr %4, align 4, !tbaa !10
  %5 = load i32, ptr %3, align 4, !tbaa !10
  %6 = load i32, ptr %4, align 4, !tbaa !10
  %7 = shl i32 %5, %6
  %8 = load i32, ptr %3, align 4, !tbaa !10
  %9 = load i32, ptr %4, align 4, !tbaa !10
  %10 = zext i32 %9 to i64
  %11 = sub i64 32, %10
  %12 = trunc i64 %11 to i32
  %13 = lshr i32 %8, %12
  %14 = or i32 %7, %13
  ret i32 %14
}

; Function Attrs: inlinehint nounwind uwtable
define internal i32 @rotrFixed(i32 noundef %0, i32 noundef %1) #2 {
  %3 = alloca i32, align 4
  %4 = alloca i32, align 4
  store i32 %0, ptr %3, align 4, !tbaa !10
  store i32 %1, ptr %4, align 4, !tbaa !10
  %5 = load i32, ptr %3, align 4, !tbaa !10
  %6 = load i32, ptr %4, align 4, !tbaa !10
  %7 = lshr i32 %5, %6
  %8 = load i32, ptr %3, align 4, !tbaa !10
  %9 = load i32, ptr %4, align 4, !tbaa !10
  %10 = zext i32 %9 to i64
  %11 = sub i64 32, %10
  %12 = trunc i64 %11 to i32
  %13 = shl i32 %8, %12
  %14 = or i32 %7, %13
  ret i32 %14
}

; Function Attrs: inlinehint nounwind uwtable
define internal void @ForceZero(ptr noundef %0, i32 noundef %1) #2 {
  %3 = alloca ptr, align 8
  %4 = alloca i32, align 4
  %5 = alloca ptr, align 8
  %6 = alloca ptr, align 8
  %7 = alloca i32, align 4
  store ptr %0, ptr %3, align 8, !tbaa !24
  store i32 %1, ptr %4, align 4, !tbaa !10
  call void @llvm.lifetime.start.p0(i64 8, ptr %5) #6
  %8 = load ptr, ptr %3, align 8, !tbaa !24
  store ptr %8, ptr %5, align 8, !tbaa !8
  call void @llvm.lifetime.start.p0(i64 8, ptr %6) #6
  call void @llvm.lifetime.start.p0(i64 4, ptr %7) #6
  %9 = load ptr, ptr %5, align 8, !tbaa !8
  %10 = ptrtoint ptr %9 to i64
  %11 = and i64 %10, 7
  %12 = sub i64 8, %11
  %13 = and i64 %12, 7
  %14 = trunc i64 %13 to i32
  store i32 %14, ptr %7, align 4, !tbaa !10
  %15 = load i32, ptr %4, align 4, !tbaa !10
  %16 = load i32, ptr %7, align 4, !tbaa !10
  %17 = icmp ult i32 %15, %16
  br i1 %17, label %18, label %20

18:                                               ; preds = %2
  %19 = load i32, ptr %4, align 4, !tbaa !10
  store i32 %19, ptr %7, align 4, !tbaa !10
  br label %20

20:                                               ; preds = %18, %2
  %21 = load i32, ptr %7, align 4, !tbaa !10
  %22 = load i32, ptr %4, align 4, !tbaa !10
  %23 = sub i32 %22, %21
  store i32 %23, ptr %4, align 4, !tbaa !10
  br label %24

24:                                               ; preds = %28, %20
  %25 = load i32, ptr %7, align 4, !tbaa !10
  %26 = add i32 %25, -1
  store i32 %26, ptr %7, align 4, !tbaa !10
  %27 = icmp ne i32 %25, 0
  br i1 %27, label %28, label %31

28:                                               ; preds = %24
  %29 = load ptr, ptr %5, align 8, !tbaa !8
  %30 = getelementptr inbounds nuw i8, ptr %29, i32 1
  store ptr %30, ptr %5, align 8, !tbaa !8
  store volatile i8 0, ptr %29, align 1, !tbaa !22
  br label %24, !llvm.loop !29

31:                                               ; preds = %24
  %32 = load ptr, ptr %5, align 8, !tbaa !8
  store ptr %32, ptr %6, align 8, !tbaa !30
  br label %33

33:                                               ; preds = %40, %31
  %34 = load i32, ptr %4, align 4, !tbaa !10
  %35 = zext i32 %34 to i64
  %36 = icmp uge i64 %35, 8
  br i1 %36, label %37, label %43

37:                                               ; preds = %33
  %38 = load ptr, ptr %6, align 8, !tbaa !30
  %39 = getelementptr inbounds nuw i64, ptr %38, i32 1
  store ptr %39, ptr %6, align 8, !tbaa !30
  store volatile i64 0, ptr %38, align 8, !tbaa !32
  br label %40

40:                                               ; preds = %37
  %41 = load i32, ptr %4, align 4, !tbaa !10
  %42 = sub i32 %41, 8
  store i32 %42, ptr %4, align 4, !tbaa !10
  br label %33, !llvm.loop !34

43:                                               ; preds = %33
  %44 = load ptr, ptr %6, align 8, !tbaa !30
  store ptr %44, ptr %5, align 8, !tbaa !8
  br label %45

45:                                               ; preds = %49, %43
  %46 = load i32, ptr %4, align 4, !tbaa !10
  %47 = add i32 %46, -1
  store i32 %47, ptr %4, align 4, !tbaa !10
  %48 = icmp ne i32 %46, 0
  br i1 %48, label %49, label %52

49:                                               ; preds = %45
  %50 = load ptr, ptr %5, align 8, !tbaa !8
  %51 = getelementptr inbounds nuw i8, ptr %50, i32 1
  store ptr %51, ptr %5, align 8, !tbaa !8
  store volatile i8 0, ptr %50, align 1, !tbaa !22
  br label %45, !llvm.loop !35

52:                                               ; preds = %45
  call void @llvm.lifetime.end.p0(i64 4, ptr %7) #6
  call void @llvm.lifetime.end.p0(i64 8, ptr %6) #6
  call void @llvm.lifetime.end.p0(i64 8, ptr %5) #6
  ret void
}

; Function Attrs: inlinehint nounwind uwtable
define internal i32 @ByteReverseWord32(i32 noundef %0) #2 {
  %2 = alloca i32, align 4
  store i32 %0, ptr %2, align 4, !tbaa !10
  %3 = load i32, ptr %2, align 4, !tbaa !10
  %4 = call i32 @rotrFixed(i32 noundef %3, i32 noundef 8)
  %5 = and i32 %4, -16711936
  %6 = load i32, ptr %2, align 4, !tbaa !10
  %7 = call i32 @rotlFixed(i32 noundef %6, i32 noundef 8)
  %8 = and i32 %7, 16711935
  %9 = or i32 %5, %8
  ret i32 %9
}

; Function Attrs: nounwind uwtable
define internal i32 @Hash_df(ptr noundef %0, ptr noundef %1, i32 noundef %2, i8 noundef zeroext %3, ptr noundef %4, i32 noundef %5, ptr noundef %6, i32 noundef %7) #0 {
  %9 = alloca i32, align 4
  %10 = alloca ptr, align 8
  %11 = alloca ptr, align 8
  %12 = alloca i32, align 4
  %13 = alloca i8, align 1
  %14 = alloca ptr, align 8
  %15 = alloca i32, align 4
  %16 = alloca ptr, align 8
  %17 = alloca i32, align 4
  %18 = alloca i32, align 4
  %19 = alloca i8, align 1
  %20 = alloca i32, align 4
  %21 = alloca i32, align 4
  %22 = alloca i32, align 4
  %23 = alloca [1 x %struct.wc_Sha256], align 16
  %24 = alloca [32 x i8], align 16
  %25 = alloca i32, align 4
  store ptr %0, ptr %10, align 8, !tbaa !16
  store ptr %1, ptr %11, align 8, !tbaa !8
  store i32 %2, ptr %12, align 4, !tbaa !10
  store i8 %3, ptr %13, align 1, !tbaa !22
  store ptr %4, ptr %14, align 8, !tbaa !8
  store i32 %5, ptr %15, align 4, !tbaa !10
  store ptr %6, ptr %16, align 8, !tbaa !8
  store i32 %7, ptr %17, align 4, !tbaa !10
  call void @llvm.lifetime.start.p0(i64 4, ptr %18) #6
  store i32 1, ptr %18, align 4, !tbaa !10
  call void @llvm.lifetime.start.p0(i64 1, ptr %19) #6
  call void @llvm.lifetime.start.p0(i64 4, ptr %20) #6
  call void @llvm.lifetime.start.p0(i64 4, ptr %21) #6
  call void @llvm.lifetime.start.p0(i64 4, ptr %22) #6
  %26 = load i32, ptr %12, align 4, !tbaa !10
  %27 = mul i32 %26, 8
  store i32 %27, ptr %22, align 4, !tbaa !10
  call void @llvm.lifetime.start.p0(i64 128, ptr %23) #6
  call void @llvm.lifetime.start.p0(i64 32, ptr %24) #6
  %28 = load ptr, ptr %10, align 8, !tbaa !16
  %29 = icmp eq ptr %28, null
  br i1 %29, label %30, label %31

30:                                               ; preds = %8
  store i32 1, ptr %9, align 4
  store i32 1, ptr %25, align 4
  br label %131

31:                                               ; preds = %8
  %32 = load i32, ptr %22, align 4, !tbaa !10
  %33 = call i32 @ByteReverseWord32(i32 noundef %32)
  store i32 %33, ptr %22, align 4, !tbaa !10
  %34 = load i32, ptr %12, align 4, !tbaa !10
  %35 = udiv i32 %34, 32
  %36 = load i32, ptr %12, align 4, !tbaa !10
  %37 = urem i32 %36, 32
  %38 = icmp ne i32 %37, 0
  %39 = select i1 %38, i32 1, i32 0
  %40 = add i32 %35, %39
  store i32 %40, ptr %21, align 4, !tbaa !10
  store i8 1, ptr %19, align 1, !tbaa !22
  store i32 0, ptr %20, align 4, !tbaa !10
  br label %41

41:                                               ; preds = %123, %31
  %42 = load i32, ptr %20, align 4, !tbaa !10
  %43 = load i32, ptr %21, align 4, !tbaa !10
  %44 = icmp ult i32 %42, %43
  br i1 %44, label %45, label %126

45:                                               ; preds = %41
  %46 = getelementptr inbounds [1 x %struct.wc_Sha256], ptr %23, i64 0, i64 0
  %47 = call i32 @wc_InitSha256(ptr noundef %46)
  store i32 %47, ptr %18, align 4, !tbaa !10
  %48 = load i32, ptr %18, align 4, !tbaa !10
  %49 = icmp ne i32 %48, 0
  br i1 %49, label %50, label %51

50:                                               ; preds = %45
  br label %126

51:                                               ; preds = %45
  %52 = getelementptr inbounds [1 x %struct.wc_Sha256], ptr %23, i64 0, i64 0
  %53 = call i32 @wc_Sha256Update(ptr noundef %52, ptr noundef %19, i32 noundef 1)
  store i32 %53, ptr %18, align 4, !tbaa !10
  %54 = load i32, ptr %18, align 4, !tbaa !10
  %55 = icmp eq i32 %54, 0
  br i1 %55, label %56, label %61

56:                                               ; preds = %51
  %57 = load i8, ptr %19, align 1, !tbaa !22
  %58 = add i8 %57, 1
  store i8 %58, ptr %19, align 1, !tbaa !22
  %59 = getelementptr inbounds [1 x %struct.wc_Sha256], ptr %23, i64 0, i64 0
  %60 = call i32 @wc_Sha256Update(ptr noundef %59, ptr noundef %22, i32 noundef 4)
  store i32 %60, ptr %18, align 4, !tbaa !10
  br label %61

61:                                               ; preds = %56, %51
  %62 = load i32, ptr %18, align 4, !tbaa !10
  %63 = icmp eq i32 %62, 0
  br i1 %63, label %64, label %72

64:                                               ; preds = %61
  %65 = load i8, ptr %13, align 1, !tbaa !22
  %66 = zext i8 %65 to i32
  %67 = icmp ne i32 %66, 4
  br i1 %67, label %68, label %71

68:                                               ; preds = %64
  %69 = getelementptr inbounds [1 x %struct.wc_Sha256], ptr %23, i64 0, i64 0
  %70 = call i32 @wc_Sha256Update(ptr noundef %69, ptr noundef %13, i32 noundef 1)
  store i32 %70, ptr %18, align 4, !tbaa !10
  br label %71

71:                                               ; preds = %68, %64
  br label %72

72:                                               ; preds = %71, %61
  %73 = load i32, ptr %18, align 4, !tbaa !10
  %74 = icmp eq i32 %73, 0
  br i1 %74, label %75, label %80

75:                                               ; preds = %72
  %76 = getelementptr inbounds [1 x %struct.wc_Sha256], ptr %23, i64 0, i64 0
  %77 = load ptr, ptr %14, align 8, !tbaa !8
  %78 = load i32, ptr %15, align 4, !tbaa !10
  %79 = call i32 @wc_Sha256Update(ptr noundef %76, ptr noundef %77, i32 noundef %78)
  store i32 %79, ptr %18, align 4, !tbaa !10
  br label %80

80:                                               ; preds = %75, %72
  %81 = load i32, ptr %18, align 4, !tbaa !10
  %82 = icmp eq i32 %81, 0
  br i1 %82, label %83, label %95

83:                                               ; preds = %80
  %84 = load ptr, ptr %16, align 8, !tbaa !8
  %85 = icmp ne ptr %84, null
  br i1 %85, label %86, label %94

86:                                               ; preds = %83
  %87 = load i32, ptr %17, align 4, !tbaa !10
  %88 = icmp ugt i32 %87, 0
  br i1 %88, label %89, label %94

89:                                               ; preds = %86
  %90 = getelementptr inbounds [1 x %struct.wc_Sha256], ptr %23, i64 0, i64 0
  %91 = load ptr, ptr %16, align 8, !tbaa !8
  %92 = load i32, ptr %17, align 4, !tbaa !10
  %93 = call i32 @wc_Sha256Update(ptr noundef %90, ptr noundef %91, i32 noundef %92)
  store i32 %93, ptr %18, align 4, !tbaa !10
  br label %94

94:                                               ; preds = %89, %86, %83
  br label %95

95:                                               ; preds = %94, %80
  %96 = load i32, ptr %18, align 4, !tbaa !10
  %97 = icmp eq i32 %96, 0
  br i1 %97, label %98, label %102

98:                                               ; preds = %95
  %99 = getelementptr inbounds [1 x %struct.wc_Sha256], ptr %23, i64 0, i64 0
  %100 = getelementptr inbounds [32 x i8], ptr %24, i64 0, i64 0
  %101 = call i32 @wc_Sha256Final(ptr noundef %99, ptr noundef %100)
  store i32 %101, ptr %18, align 4, !tbaa !10
  br label %102

102:                                              ; preds = %98, %95
  %103 = getelementptr inbounds [1 x %struct.wc_Sha256], ptr %23, i64 0, i64 0
  call void @wc_Sha256Free(ptr noundef %103)
  %104 = load i32, ptr %18, align 4, !tbaa !10
  %105 = icmp eq i32 %104, 0
  br i1 %105, label %106, label %122

106:                                              ; preds = %102
  %107 = load i32, ptr %12, align 4, !tbaa !10
  %108 = icmp ugt i32 %107, 32
  br i1 %108, label %109, label %116

109:                                              ; preds = %106
  %110 = load ptr, ptr %11, align 8, !tbaa !8
  %111 = getelementptr inbounds [32 x i8], ptr %24, i64 0, i64 0
  call void @llvm.memcpy.p0.p0.i64(ptr align 1 %110, ptr align 16 %111, i64 32, i1 false)
  %112 = load i32, ptr %12, align 4, !tbaa !10
  %113 = sub i32 %112, 32
  store i32 %113, ptr %12, align 4, !tbaa !10
  %114 = load ptr, ptr %11, align 8, !tbaa !8
  %115 = getelementptr inbounds i8, ptr %114, i64 32
  store ptr %115, ptr %11, align 8, !tbaa !8
  br label %121

116:                                              ; preds = %106
  %117 = load ptr, ptr %11, align 8, !tbaa !8
  %118 = getelementptr inbounds [32 x i8], ptr %24, i64 0, i64 0
  %119 = load i32, ptr %12, align 4, !tbaa !10
  %120 = zext i32 %119 to i64
  call void @llvm.memcpy.p0.p0.i64(ptr align 1 %117, ptr align 16 %118, i64 %120, i1 false)
  br label %121

121:                                              ; preds = %116, %109
  br label %122

122:                                              ; preds = %121, %102
  br label %123

123:                                              ; preds = %122
  %124 = load i32, ptr %20, align 4, !tbaa !10
  %125 = add i32 %124, 1
  store i32 %125, ptr %20, align 4, !tbaa !10
  br label %41, !llvm.loop !42

126:                                              ; preds = %50, %41
  %127 = getelementptr inbounds [32 x i8], ptr %24, i64 0, i64 0
  call void @ForceZero(ptr noundef %127, i32 noundef 32)
  %128 = load i32, ptr %18, align 4, !tbaa !10
  %129 = icmp eq i32 %128, 0
  %130 = select i1 %129, i32 0, i32 1
  store i32 %130, ptr %9, align 4
  store i32 1, ptr %25, align 4
  br label %131

131:                                              ; preds = %126, %30
  call void @llvm.lifetime.end.p0(i64 32, ptr %24) #6
  call void @llvm.lifetime.end.p0(i64 128, ptr %23) #6
  call void @llvm.lifetime.end.p0(i64 4, ptr %22) #6
  call void @llvm.lifetime.end.p0(i64 4, ptr %21) #6
  call void @llvm.lifetime.end.p0(i64 4, ptr %20) #6
  call void @llvm.lifetime.end.p0(i64 1, ptr %19) #6
  call void @llvm.lifetime.end.p0(i64 4, ptr %18) #6
  %132 = load i32, ptr %9, align 4
  ret i32 %132
}