; Function Attrs: nounwind uwtable
define internal fastcc range(i32 0, 2) i32 @Hash_df(ptr noundef readnone captures(address_is_null) %0, ptr noundef writeonly captures(none) %1, i8 noundef zeroext range(i8 0, 5) %2, ptr noundef %3, i32 noundef %4, ptr noundef %5, i32 noundef %6) unnamed_addr #0 {
  %8 = alloca i8, align 1
  %9 = alloca i8, align 1
  %10 = alloca i32, align 4
  %11 = alloca [1 x %struct.wc_Sha256], align 16
  %12 = alloca [32 x i8], align 16
  store i8 %2, ptr %8, align 1, !tbaa !15
  call void @llvm.lifetime.start.p0(i64 1, ptr nonnull %9) #9
  call void @llvm.lifetime.start.p0(i64 4, ptr nonnull %10) #9
  call void @llvm.lifetime.start.p0(i64 128, ptr nonnull %11) #9
  call void @llvm.lifetime.start.p0(i64 32, ptr nonnull %12) #9
  %13 = icmp eq ptr %0, null
  br i1 %13, label %55, label %14

14:                                               ; preds = %7
  store i32 -1207894016, ptr %10, align 4, !tbaa !29
  store i8 1, ptr %9, align 1, !tbaa !15
  %15 = icmp ne ptr %5, null
  %16 = icmp ne i32 %6, 0
  %or.cond = and i1 %15, %16
  br label %17

17:                                               ; preds = %14, %50
  %18 = phi i1 [ true, %14 ], [ false, %50 ]
  %.03358 = phi ptr [ %1, %14 ], [ %.134, %50 ]
  %.03557 = phi i32 [ 55, %14 ], [ %.136, %50 ]
  %19 = call i32 @wc_InitSha256(ptr noundef nonnull %11) #9
  %.not = icmp eq i32 %19, 0
  br i1 %.not, label %20, label %.lr.ph29.preheader.i

20:                                               ; preds = %17
  %21 = call i32 @wc_Sha256Update(ptr noundef nonnull %11, ptr noundef nonnull %9, i32 noundef 1) #9
  %22 = icmp eq i32 %21, 0
  br i1 %22, label %23, label %.thread53

23:                                               ; preds = %20
  %24 = load i8, ptr %9, align 1, !tbaa !15
  %25 = add i8 %24, 1
  store i8 %25, ptr %9, align 1, !tbaa !15
  %26 = call i32 @wc_Sha256Update(ptr noundef nonnull %11, ptr noundef nonnull %10, i32 noundef 4) #9
  %27 = icmp eq i32 %26, 0
  %28 = load i8, ptr %8, align 1
  %29 = icmp ne i8 %28, 4
  %or.cond4 = select i1 %27, i1 %29, i1 false
  br i1 %or.cond4, label %30, label %32

30:                                               ; preds = %23
  %31 = call i32 @wc_Sha256Update(ptr noundef nonnull %11, ptr noundef nonnull %8, i32 noundef 1) #9
  br label %32

32:                                               ; preds = %30, %23
  %.3 = phi i32 [ %31, %30 ], [ %26, %23 ]
  %33 = icmp eq i32 %.3, 0
  br i1 %33, label %34, label %.thread53

34:                                               ; preds = %32
  %35 = call i32 @wc_Sha256Update(ptr noundef nonnull %11, ptr noundef %3, i32 noundef %4) #9
  %36 = icmp eq i32 %35, 0
  br i1 %36, label %37, label %.thread53

37:                                               ; preds = %34
  br i1 %or.cond, label %38, label %.thread50

38:                                               ; preds = %37
  %39 = call i32 @wc_Sha256Update(ptr noundef nonnull %11, ptr noundef nonnull %5, i32 noundef %6) #9
  %40 = icmp eq i32 %39, 0
  br i1 %40, label %.thread50, label %.thread53

.thread53:                                        ; preds = %38, %34, %32, %20
  %.6.ph = phi i32 [ %39, %38 ], [ %35, %34 ], [ %.3, %32 ], [ %21, %20 ]
  call void @wc_Sha256Free(ptr noundef nonnull %11) #9
  br label %50

.thread50:                                        ; preds = %37, %38
  %41 = call i32 @wc_Sha256Final(ptr noundef nonnull %11, ptr noundef nonnull %12) #9
  call void @wc_Sha256Free(ptr noundef nonnull %11) #9
  %42 = icmp eq i32 %41, 0
  br i1 %42, label %43, label %50

43:                                               ; preds = %.thread50
  %44 = icmp ugt i32 %.03557, 32
  br i1 %44, label %45, label %48

45:                                               ; preds = %43
  call void @llvm.memcpy.p0.p0.i64(ptr noundef nonnull align 1 dereferenceable(32) %.03358, ptr noundef nonnull align 16 dereferenceable(32) %12, i64 32, i1 false)
  %46 = add i32 %.03557, -32
  %47 = getelementptr inbounds nuw i8, ptr %.03358, i64 32
  br label %50

48:                                               ; preds = %43
  %49 = zext nneg i32 %.03557 to i64
  call void @llvm.memcpy.p0.p0.i64(ptr align 1 %.03358, ptr nonnull align 16 %12, i64 %49, i1 false)
  br label %50

50:                                               ; preds = %.thread53, %.thread50, %48, %45
  %.655 = phi i32 [ 0, %45 ], [ 0, %48 ], [ %41, %.thread50 ], [ %.6.ph, %.thread53 ]
  %.136 = phi i32 [ %46, %45 ], [ %.03557, %48 ], [ %.03557, %.thread50 ], [ %.03557, %.thread53 ]
  %.134 = phi ptr [ %47, %45 ], [ %.03358, %48 ], [ %.03358, %.thread50 ], [ %.03358, %.thread53 ]
  br i1 %18, label %17, label %.lr.ph29.preheader.i, !llvm.loop !34

.lr.ph29.preheader.i:                             ; preds = %50, %17
  %.1 = phi i32 [ %19, %17 ], [ %.655, %50 ]
  br label %.lr.ph29.i

.lr.ph29.i:                                       ; preds = %.lr.ph29.i, %.lr.ph29.preheader.i
  %.01528.i = phi ptr [ %51, %.lr.ph29.i ], [ %12, %.lr.ph29.preheader.i ]
  %.01827.i = phi i32 [ %52, %.lr.ph29.i ], [ 32, %.lr.ph29.preheader.i ]
  %51 = getelementptr inbounds nuw i8, ptr %.01528.i, i64 8
  store volatile i64 0, ptr %.01528.i, align 8, !tbaa !11
  %52 = add nsw i32 %.01827.i, -8
  %.not56 = icmp eq i32 %52, 0
  br i1 %.not56, label %ForceZero.exit, label %.lr.ph29.i, !llvm.loop !13

ForceZero.exit:                                   ; preds = %.lr.ph29.i
  %53 = icmp ne i32 %.1, 0
  %54 = zext i1 %53 to i32
  br label %55

55:                                               ; preds = %7, %ForceZero.exit
  %.0 = phi i32 [ %54, %ForceZero.exit ], [ 1, %7 ]
  call void @llvm.lifetime.end.p0(i64 32, ptr nonnull %12) #9
  call void @llvm.lifetime.end.p0(i64 128, ptr nonnull %11) #9
  call void @llvm.lifetime.end.p0(i64 4, ptr nonnull %10) #9
  call void @llvm.lifetime.end.p0(i64 1, ptr nonnull %9) #9
  ret i32 %.0
}